target datalayout = "e-m:e-p270:32:32-p271:32:32-p272:64:64-i64:64-i128:128-f80:128-n8:16:32:64-S128"
target triple = "x86_64-pc-linux-gnu"

%"struct.duckdb_miniz::tdefl_output_buffer" = type { i64, i64, ptr, i32 }

; Function Attrs: mustprogress uwtable
define noundef i64 @_ZN12duckdb_miniz25tdefl_compress_mem_to_memEPvmPKvmi(ptr noundef %0, i64 noundef %1, ptr noundef %2, i64 noundef %3, i32 noundef %4) #5 {
  %6 = alloca i64, align 8
  %7 = alloca ptr, align 8
  %8 = alloca i64, align 8
  %9 = alloca ptr, align 8
  %10 = alloca i64, align 8
  %11 = alloca i32, align 4
  %12 = alloca %"struct.duckdb_miniz::tdefl_output_buffer", align 8
  %13 = alloca i32, align 4
  store ptr %0, ptr %7, align 8, !tbaa !19
  store i64 %1, ptr %8, align 8, !tbaa !3
  store ptr %2, ptr %9, align 8, !tbaa !19
  store i64 %3, ptr %10, align 8, !tbaa !3
  store i32 %4, ptr %11, align 4, !tbaa !10
  call void @llvm.lifetime.start.p0(i64 32, ptr %12) #11
  call void @llvm.memset.p0.i64(ptr align 8 %12, i8 0, i64 32, i1 false)
  %14 = load ptr, ptr %7, align 8, !tbaa !19
  %15 = icmp ne ptr %14, null
  br i1 %15, label %17, label %16

16:                                               ; preds = %5
  store i64 0, ptr %6, align 8
  store i32 1, ptr %13, align 4
  br label %31

17:                                               ; preds = %5
  %18 = load ptr, ptr %7, align 8, !tbaa !19
  %19 = getelementptr inbounds nuw %"struct.duckdb_miniz::tdefl_output_buffer", ptr %12, i32 0, i32 2
  store ptr %18, ptr %19, align 8, !tbaa !218
  %20 = load i64, ptr %8, align 8, !tbaa !3
  %21 = getelementptr inbounds nuw %"struct.duckdb_miniz::tdefl_output_buffer", ptr %12, i32 0, i32 1
  store i64 %20, ptr %21, align 8, !tbaa !219
  %22 = load ptr, ptr %9, align 8, !tbaa !19
  %23 = load i64, ptr %10, align 8, !tbaa !3
  %24 = load i32, ptr %11, align 4, !tbaa !10
  %25 = call noundef i32 @_ZN12duckdb_miniz28tdefl_compress_mem_to_outputEPKvmPFiS1_iPvES2_i(ptr noundef %22, i64 noundef %23, ptr noundef @_ZN12duckdb_minizL26tdefl_output_buffer_putterEPKviPv, ptr noundef %12, i32 noundef %24)
  %26 = icmp ne i32 %25, 0
  br i1 %26, label %28, label %27

27:                                               ; preds = %17
  store i64 0, ptr %6, align 8
  store i32 1, ptr %13, align 4
  br label %31

28:                                               ; preds = %17
  %29 = getelementptr inbounds nuw %"struct.duckdb_miniz::tdefl_output_buffer", ptr %12, i32 0, i32 0
  %30 = load i64, ptr %29, align 8, !tbaa !217
  store i64 %30, ptr %6, align 8
  store i32 1, ptr %13, align 4
  br label %31

31:                                               ; preds = %28, %27, %16
  call void @llvm.lifetime.end.p0(i64 32, ptr %12) #11
  %32 = load i64, ptr %6, align 8
  ret i64 %32
}