; Function Attrs: mustprogress uwtable
define noundef i64 @_ZN12duckdb_miniz25tdefl_compress_mem_to_memEPvmPKvmi(ptr noundef %0, i64 noundef %1, ptr noundef %2, i64 noundef %3, i32 noundef %4) local_unnamed_addr #8 {
  %6 = alloca %"struct.duckdb_miniz::tdefl_output_buffer", align 8
  call void @llvm.lifetime.start.p0(i64 32, ptr nonnull %6) #25
  call void @llvm.memset.p0.i64(ptr noundef nonnull align 8 dereferenceable(32) %6, i8 0, i64 32, i1 false)
  %.not = icmp eq ptr %0, null
  br i1 %.not, label %12, label %7

7:                                                ; preds = %5
  %8 = getelementptr inbounds nuw i8, ptr %6, i64 16
  store ptr %0, ptr %8, align 8, !tbaa !197
  %9 = getelementptr inbounds nuw i8, ptr %6, i64 8
  store i64 %1, ptr %9, align 8, !tbaa !198
  %10 = call noundef i32 @_ZN12duckdb_miniz28tdefl_compress_mem_to_outputEPKvmPFiS1_iPvES2_i(ptr noundef %2, i64 noundef %3, ptr noundef nonnull @_ZN12duckdb_minizL26tdefl_output_buffer_putterEPKviPv, ptr noundef nonnull %6, i32 noundef %4)
  %.not7 = icmp eq i32 %10, 0
  %11 = load i64, ptr %6, align 8
  %spec.select = select i1 %.not7, i64 0, i64 %11
  br label %12

12:                                               ; preds = %7, %5
  %.0 = phi i64 [ 0, %5 ], [ %spec.select, %7 ]
  call void @llvm.lifetime.end.p0(i64 32, ptr nonnull %6) #25
  ret i64 %.0
}